; Function Attrs: null_pointer_is_valid sspstrong uwtable
define internal fastcc void @dissect_mp4_hdlr_body(ptr noundef %0, i32 noundef %1, ptr noundef %2) unnamed_addr #0 {
  %4 = load i32, ptr @hf_mp4_full_box_ver, align 4
  %5 = tail call ptr @proto_tree_add_item(ptr noundef %2, i32 noundef %4, ptr noundef %0, i32 noundef %1, i32 noundef 1, i32 noundef 0)
  %6 = add i32 %1, 1
  %7 = load i32, ptr @hf_mp4_full_box_flags, align 4
  %8 = tail call ptr @proto_tree_add_item(ptr noundef %2, i32 noundef %7, ptr noundef %0, i32 noundef %6, i32 noundef 3, i32 noundef 0)
  %9 = add i32 %1, 8
  %10 = load i32, ptr @hf_mp4_hdlr_type, align 4
  %11 = tail call ptr @proto_tree_add_item(ptr noundef %2, i32 noundef %10, ptr noundef %0, i32 noundef %9, i32 noundef 4, i32 noundef 0)
  %12 = add i32 %1, 24
  %13 = tail call i32 @tvb_strsize(ptr noundef %0, i32 noundef %12)
  %14 = load i32, ptr @hf_mp4_hdlr_name, align 4
  %15 = tail call ptr @proto_tree_add_item(ptr noundef %2, i32 noundef %14, ptr noundef %0, i32 noundef %12, i32 noundef %13, i32 noundef 2)
  ret void
}